target datalayout = "e-m:e-p270:32:32-p271:32:32-p272:64:64-i64:64-i128:128-f80:128-n8:16:32:64-S128"
target triple = "x86_64-pc-linux-gnu"

; Function Attrs: mustprogress nounwind uwtable
define void @_ZN8tinyxml27XMLUtil18ConvertUTF32ToUTF8EmPcPi(i64 noundef %0, ptr noundef %1, ptr noundef %2) #0 align 2 {
  %4 = alloca i64, align 8
  %5 = alloca ptr, align 8
  %6 = alloca ptr, align 8
  %7 = alloca i64, align 8
  %8 = alloca i64, align 8
  %9 = alloca [7 x i64], align 16
  %10 = alloca i32, align 4
  store i64 %0, ptr %4, align 8, !tbaa !16
  store ptr %1, ptr %5, align 8, !tbaa !14
  store ptr %2, ptr %6, align 8, !tbaa !18
  call void @llvm.lifetime.start.p0(i64 8, ptr %7) #18
  store i64 191, ptr %7, align 8, !tbaa !16
  call void @llvm.lifetime.start.p0(i64 8, ptr %8) #18
  store i64 128, ptr %8, align 8, !tbaa !16
  call void @llvm.lifetime.start.p0(i64 56, ptr %9) #18
  call void @llvm.memset.p0.i64(ptr align 16 %9, i8 0, i64 56, i1 false)
  %11 = getelementptr inbounds [7 x i64], ptr %9, i32 0, i32 2
  store i64 192, ptr %11, align 16
  %12 = getelementptr inbounds [7 x i64], ptr %9, i32 0, i32 3
  store i64 224, ptr %12, align 8
  %13 = getelementptr inbounds [7 x i64], ptr %9, i32 0, i32 4
  store i64 240, ptr %13, align 16
  %14 = getelementptr inbounds [7 x i64], ptr %9, i32 0, i32 5
  store i64 248, ptr %14, align 8
  %15 = getelementptr inbounds [7 x i64], ptr %9, i32 0, i32 6
  store i64 252, ptr %15, align 16
  %16 = load i64, ptr %4, align 8, !tbaa !16
  %17 = icmp ult i64 %16, 128
  br i1 %17, label %18, label %20

18:                                               ; preds = %3
  %19 = load ptr, ptr %6, align 8, !tbaa !18
  store i32 1, ptr %19, align 4, !tbaa !15
  br label %40

20:                                               ; preds = %3
  %21 = load i64, ptr %4, align 8, !tbaa !16
  %22 = icmp ult i64 %21, 2048
  br i1 %22, label %23, label %25

23:                                               ; preds = %20
  %24 = load ptr, ptr %6, align 8, !tbaa !18
  store i32 2, ptr %24, align 4, !tbaa !15
  br label %39

25:                                               ; preds = %20
  %26 = load i64, ptr %4, align 8, !tbaa !16
  %27 = icmp ult i64 %26, 65536
  br i1 %27, label %28, label %30

28:                                               ; preds = %25
  %29 = load ptr, ptr %6, align 8, !tbaa !18
  store i32 3, ptr %29, align 4, !tbaa !15
  br label %38

30:                                               ; preds = %25
  %31 = load i64, ptr %4, align 8, !tbaa !16
  %32 = icmp ult i64 %31, 2097152
  br i1 %32, label %33, label %35

33:                                               ; preds = %30
  %34 = load ptr, ptr %6, align 8, !tbaa !18
  store i32 4, ptr %34, align 4, !tbaa !15
  br label %37

35:                                               ; preds = %30
  %36 = load ptr, ptr %6, align 8, !tbaa !18
  store i32 0, ptr %36, align 4, !tbaa !15
  store i32 1, ptr %10, align 4
  br label %92

37:                                               ; preds = %33
  br label %38

38:                                               ; preds = %37, %28
  br label %39

39:                                               ; preds = %38, %23
  br label %40

40:                                               ; preds = %39, %18
  %41 = load ptr, ptr %6, align 8, !tbaa !18
  %42 = load i32, ptr %41, align 4, !tbaa !15
  %43 = load ptr, ptr %5, align 8, !tbaa !14
  %44 = sext i32 %42 to i64
  %45 = getelementptr inbounds i8, ptr %43, i64 %44
  store ptr %45, ptr %5, align 8, !tbaa !14
  %46 = load ptr, ptr %6, align 8, !tbaa !18
  %47 = load i32, ptr %46, align 4, !tbaa !15
  switch i32 %47, label %90 [
    i32 4, label %48
    i32 3, label %58
    i32 2, label %68
    i32 1, label %78
  ]

48:                                               ; preds = %40
  %49 = load ptr, ptr %5, align 8, !tbaa !14
  %50 = getelementptr inbounds i8, ptr %49, i32 -1
  store ptr %50, ptr %5, align 8, !tbaa !14
  %51 = load i64, ptr %4, align 8, !tbaa !16
  %52 = or i64 %51, 128
  %53 = and i64 %52, 191
  %54 = trunc i64 %53 to i8
  %55 = load ptr, ptr %5, align 8, !tbaa !14
  store i8 %54, ptr %55, align 1, !tbaa !20
  %56 = load i64, ptr %4, align 8, !tbaa !16
  %57 = lshr i64 %56, 6
  store i64 %57, ptr %4, align 8, !tbaa !16
  br label %58

58:                                               ; preds = %40, %48
  %59 = load ptr, ptr %5, align 8, !tbaa !14
  %60 = getelementptr inbounds i8, ptr %59, i32 -1
  store ptr %60, ptr %5, align 8, !tbaa !14
  %61 = load i64, ptr %4, align 8, !tbaa !16
  %62 = or i64 %61, 128
  %63 = and i64 %62, 191
  %64 = trunc i64 %63 to i8
  %65 = load ptr, ptr %5, align 8, !tbaa !14
  store i8 %64, ptr %65, align 1, !tbaa !20
  %66 = load i64, ptr %4, align 8, !tbaa !16
  %67 = lshr i64 %66, 6
  store i64 %67, ptr %4, align 8, !tbaa !16
  br label %68

68:                                               ; preds = %40, %58
  %69 = load ptr, ptr %5, align 8, !tbaa !14
  %70 = getelementptr inbounds i8, ptr %69, i32 -1
  store ptr %70, ptr %5, align 8, !tbaa !14
  %71 = load i64, ptr %4, align 8, !tbaa !16
  %72 = or i64 %71, 128
  %73 = and i64 %72, 191
  %74 = trunc i64 %73 to i8
  %75 = load ptr, ptr %5, align 8, !tbaa !14
  store i8 %74, ptr %75, align 1, !tbaa !20
  %76 = load i64, ptr %4, align 8, !tbaa !16
  %77 = lshr i64 %76, 6
  store i64 %77, ptr %4, align 8, !tbaa !16
  br label %78

78:                                               ; preds = %40, %68
  %79 = load ptr, ptr %5, align 8, !tbaa !14
  %80 = getelementptr inbounds i8, ptr %79, i32 -1
  store ptr %80, ptr %5, align 8, !tbaa !14
  %81 = load i64, ptr %4, align 8, !tbaa !16
  %82 = load ptr, ptr %6, align 8, !tbaa !18
  %83 = load i32, ptr %82, align 4, !tbaa !15
  %84 = sext i32 %83 to i64
  %85 = getelementptr inbounds [7 x i64], ptr %9, i64 0, i64 %84
  %86 = load i64, ptr %85, align 8, !tbaa !16
  %87 = or i64 %81, %86
  %88 = trunc i64 %87 to i8
  %89 = load ptr, ptr %5, align 8, !tbaa !14
  store i8 %88, ptr %89, align 1, !tbaa !20
  br label %91

90:                                               ; preds = %40
  br label %91

91:                                               ; preds = %90, %78
  store i32 0, ptr %10, align 4
  br label %92

92:                                               ; preds = %91, %35
  call void @llvm.lifetime.end.p0(i64 56, ptr %9) #18
  call void @llvm.lifetime.end.p0(i64 8, ptr %8) #18
  call void @llvm.lifetime.end.p0(i64 8, ptr %7) #18
  %93 = load i32, ptr %10, align 4
  switch i32 %93, label %95 [
    i32 0, label %94
    i32 1, label %94
  ]

94:                                               ; preds = %92, %92
  ret void

95:                                               ; preds = %92
  unreachable
}