; Function Attrs: mustprogress nofree norecurse nosync nounwind willreturn memory(argmem: readwrite) uwtable
define void @_ZN8tinyxml27XMLUtil18ConvertUTF32ToUTF8EmPcPi(i64 noundef %0, ptr noundef writeonly captures(none) %1, ptr noundef captures(none) initializes((0, 4)) %2) local_unnamed_addr #13 align 2 {
  %4 = alloca [7 x i64], align 16
  call void @llvm.lifetime.start.p0(i64 56, ptr nonnull %4) #31
  call void @llvm.memset.p0.i64(ptr noundef nonnull align 16 dereferenceable(56) %4, i8 0, i64 16, i1 false)
  %5 = getelementptr inbounds nuw i8, ptr %4, i64 16
  store i64 192, ptr %5, align 16
  %6 = getelementptr inbounds nuw i8, ptr %4, i64 24
  store i64 224, ptr %6, align 8
  %7 = getelementptr inbounds nuw i8, ptr %4, i64 32
  store i64 240, ptr %7, align 16
  %8 = getelementptr inbounds nuw i8, ptr %4, i64 40
  store i64 248, ptr %8, align 8
  %9 = getelementptr inbounds nuw i8, ptr %4, i64 48
  store i64 252, ptr %9, align 16
  %10 = icmp ult i64 %0, 128
  br i1 %10, label %18, label %11

11:                                               ; preds = %3
  %12 = icmp ult i64 %0, 2048
  br i1 %12, label %.thread32, label %13

.thread32:                                        ; preds = %11
  store i32 2, ptr %2, align 4, !tbaa !13
  br label %31

13:                                               ; preds = %11
  %14 = icmp ult i64 %0, 65536
  br i1 %14, label %.thread31, label %15

.thread31:                                        ; preds = %13
  store i32 3, ptr %2, align 4, !tbaa !13
  br label %25

15:                                               ; preds = %13
  %16 = icmp ult i64 %0, 2097152
  br i1 %16, label %19, label %17

17:                                               ; preds = %15
  store i32 0, ptr %2, align 4, !tbaa !13
  br label %44

18:                                               ; preds = %3
  store i32 1, ptr %2, align 4, !tbaa !13
  br label %38

19:                                               ; preds = %15
  store i32 4, ptr %2, align 4, !tbaa !13
  %20 = getelementptr inbounds nuw i8, ptr %1, i64 3
  %21 = trunc i64 %0 to i8
  %22 = and i8 %21, 63
  %23 = or disjoint i8 %22, -128
  store i8 %23, ptr %20, align 1, !tbaa !12
  %24 = lshr i64 %0, 6
  br label %25

25:                                               ; preds = %.thread31, %19
  %.0 = phi i64 [ %24, %19 ], [ %0, %.thread31 ]
  %26 = getelementptr inbounds nuw i8, ptr %1, i64 2
  %27 = trunc i64 %.0 to i8
  %28 = and i8 %27, 63
  %29 = or disjoint i8 %28, -128
  store i8 %29, ptr %26, align 1, !tbaa !12
  %30 = lshr i64 %.0, 6
  br label %31

31:                                               ; preds = %.thread32, %25
  %.1 = phi i64 [ %30, %25 ], [ %0, %.thread32 ]
  %32 = getelementptr inbounds nuw i8, ptr %1, i64 1
  %33 = trunc i64 %.1 to i8
  %34 = and i8 %33, 63
  %35 = or disjoint i8 %34, -128
  store i8 %35, ptr %32, align 1, !tbaa !12
  %36 = lshr i64 %.1, 6
  %.pre = load i32, ptr %2, align 4, !tbaa !13
  %37 = sext i32 %.pre to i64
  br label %38

38:                                               ; preds = %18, %31
  %39 = phi i64 [ 1, %18 ], [ %37, %31 ]
  %.2 = phi i64 [ %0, %18 ], [ %36, %31 ]
  %40 = getelementptr inbounds [7 x i64], ptr %4, i64 0, i64 %39
  %41 = load i64, ptr %40, align 8, !tbaa !27
  %42 = or i64 %41, %.2
  %43 = trunc i64 %42 to i8
  store i8 %43, ptr %1, align 1, !tbaa !12
  br label %44

44:                                               ; preds = %38, %17
  call void @llvm.lifetime.end.p0(i64 56, ptr nonnull %4) #31
  ret void
}